target datalayout = "e-m:e-p270:32:32-p271:32:32-p272:64:64-i64:64-i128:128-f80:128-n8:16:32:64-S128"
target triple = "x86_64-pc-linux-gnu"

%struct.Model = type { %struct.Matrix, i32, i32, ptr, ptr, ptr, i32, ptr, ptr }
%struct.Matrix = type { float, float, float, float, float, float, float, float, float, float, float, float, float, float, float, float }

@.str.92 = private unnamed_addr constant [33 x i8] c"MESH: Id greater than mesh count\00", align 1
@.str.93 = private unnamed_addr constant [41 x i8] c"MATERIAL: Id greater than material count\00", align 1

; Function Attrs: nounwind uwtable
define void @SetModelMeshMaterial(ptr noundef %0, i32 noundef %1, i32 noundef %2) #0 {
  %4 = alloca ptr, align 8
  %5 = alloca i32, align 4
  %6 = alloca i32, align 4
  store ptr %0, ptr %4, align 8
  store i32 %1, ptr %5, align 4
  store i32 %2, ptr %6, align 4
  %7 = load i32, ptr %5, align 4
  %8 = load ptr, ptr %4, align 8
  %9 = getelementptr inbounds nuw %struct.Model, ptr %8, i32 0, i32 1
  %10 = load i32, ptr %9, align 8
  %11 = icmp sge i32 %7, %10
  br i1 %11, label %12, label %13

12:                                               ; preds = %3
  call void (i32, ptr, ...) @TraceLog(i32 noundef 4, ptr noundef @.str.92)
  br label %29

13:                                               ; preds = %3
  %14 = load i32, ptr %6, align 4
  %15 = load ptr, ptr %4, align 8
  %16 = getelementptr inbounds nuw %struct.Model, ptr %15, i32 0, i32 2
  %17 = load i32, ptr %16, align 4
  %18 = icmp sge i32 %14, %17
  br i1 %18, label %19, label %20

19:                                               ; preds = %13
  call void (i32, ptr, ...) @TraceLog(i32 noundef 4, ptr noundef @.str.93)
  br label %28

20:                                               ; preds = %13
  %21 = load i32, ptr %6, align 4
  %22 = load ptr, ptr %4, align 8
  %23 = getelementptr inbounds nuw %struct.Model, ptr %22, i32 0, i32 5
  %24 = load ptr, ptr %23, align 8
  %25 = load i32, ptr %5, align 4
  %26 = sext i32 %25 to i64
  %27 = getelementptr inbounds i32, ptr %24, i64 %26
  store i32 %21, ptr %27, align 4
  br label %28

28:                                               ; preds = %20, %19
  br label %29

29:                                               ; preds = %28, %12
  ret void
}