; Function Attrs: nounwind uwtable
define void @SetModelMeshMaterial(ptr noundef readonly captures(none) %0, i32 noundef %1, i32 noundef %2) local_unnamed_addr #0 {
  %4 = getelementptr inbounds nuw i8, ptr %0, i64 64
  %5 = load i32, ptr %4, align 8
  %.not = icmp slt i32 %1, %5
  br i1 %.not, label %7, label %6

6:                                                ; preds = %3
  tail call void (i32, ptr, ...) @TraceLog(i32 noundef 4, ptr noundef nonnull @.str.92) #57
  br label %16

7:                                                ; preds = %3
  %8 = getelementptr inbounds nuw i8, ptr %0, i64 68
  %9 = load i32, ptr %8, align 4
  %.not7 = icmp slt i32 %2, %9
  br i1 %.not7, label %11, label %10

10:                                               ; preds = %7
  tail call void (i32, ptr, ...) @TraceLog(i32 noundef 4, ptr noundef nonnull @.str.93) #57
  br label %16

11:                                               ; preds = %7
  %12 = getelementptr inbounds nuw i8, ptr %0, i64 88
  %13 = load ptr, ptr %12, align 8
  %14 = sext i32 %1 to i64
  %15 = getelementptr inbounds i32, ptr %13, i64 %14
  store i32 %2, ptr %15, align 4
  br label %16

16:                                               ; preds = %10, %11, %6
  ret void
}